target datalayout = "e-m:e-p270:32:32-p271:32:32-p272:64:64-i64:64-i128:128-f80:128-n8:16:32:64-S128"
target triple = "x86_64-pc-linux-gnu"

@proto_register_ipdc.ett = internal global [3 x ptr] [ptr @ett_ipdc, ptr @ett_ipdc_tag, ptr @ett_ipdc_line_status], align 16
@.str.36 = private unnamed_addr constant [32 x i8] c"IP Device Control (SS7 over IP)\00", align 1
@.str.37 = private unnamed_addr constant [5 x i8] c"IPDC\00", align 1
@.str.38 = private unnamed_addr constant [5 x i8] c"ipdc\00", align 1
@proto_ipdc = internal global i32 0, align 4
@.str.39 = private unnamed_addr constant [24 x i8] c"desegment_ipdc_messages\00", align 1
@.str.40 = private unnamed_addr constant [56 x i8] c"Reassemble IPDC messages spanning multiple TCP segments\00", align 1
@.str.41 = private unnamed_addr constant [205 x i8] c"Whether the IPDC dissector should reassemble messages spanning multiple TCP segments. To use this option, you must also enable \22Allow subdissectors to reassemble TCP streams\22 in the TCP protocol settings.\00", align 1
@ipdc_desegment = internal global i8 1, align 1
@ipdc_tcp_handle = internal global ptr null, align 8

; Function Attrs: null_pointer_is_valid sspstrong uwtable
define hidden void @proto_register_ipdc() #0 {
  %1 = alloca ptr, align 8
  %2 = alloca ptr, align 8
  call void @llvm.lifetime.start.p0(i64 8, ptr %1) #5
  call void @llvm.lifetime.start.p0(i64 8, ptr %2) #5
  %3 = call i32 @proto_register_protocol(ptr noundef @.str.36, ptr noundef @.str.37, ptr noundef @.str.38)
  store i32 %3, ptr @proto_ipdc, align 4
  %4 = load i32, ptr @proto_ipdc, align 4
  call void @proto_register_field_array(i32 noundef %4, ptr noundef @proto_register_ipdc.hf, i32 noundef 16)
  call void @proto_register_subtree_array(ptr noundef @proto_register_ipdc.ett, i32 noundef 3)
  %5 = load i32, ptr @proto_ipdc, align 4
  %6 = call ptr @expert_register_protocol(i32 noundef %5)
  store ptr %6, ptr %2, align 8
  %7 = load ptr, ptr %2, align 8
  call void @expert_register_field_array(ptr noundef %7, ptr noundef @proto_register_ipdc.ei, i32 noundef 1)
  %8 = load i32, ptr @proto_ipdc, align 4
  %9 = call ptr @prefs_register_protocol(i32 noundef %8, ptr noundef null)
  store ptr %9, ptr %1, align 8
  %10 = load ptr, ptr %1, align 8
  call void @prefs_register_bool_preference(ptr noundef %10, ptr noundef @.str.39, ptr noundef @.str.40, ptr noundef @.str.41, ptr noundef @ipdc_desegment)
  %11 = load i32, ptr @proto_ipdc, align 4
  %12 = call ptr @register_dissector(ptr noundef @.str.38, ptr noundef @dissect_ipdc_tcp, i32 noundef %11)
  store ptr %12, ptr @ipdc_tcp_handle, align 8
  call void @llvm.lifetime.end.p0(i64 8, ptr %2) #5
  call void @llvm.lifetime.end.p0(i64 8, ptr %1) #5
  ret void
}