; Function Attrs: null_pointer_is_valid sspstrong uwtable
define hidden void @proto_register_ipdc() local_unnamed_addr #0 {
  %1 = tail call i32 @proto_register_protocol(ptr noundef nonnull @.str.36, ptr noundef nonnull @.str.37, ptr noundef nonnull @.str.38)
  store i32 %1, ptr @proto_ipdc, align 4
  tail call void @proto_register_field_array(i32 noundef %1, ptr noundef nonnull @proto_register_ipdc.hf, i32 noundef 16)
  tail call void @proto_register_subtree_array(ptr noundef nonnull @proto_register_ipdc.ett, i32 noundef 3)
  %2 = load i32, ptr @proto_ipdc, align 4
  %3 = tail call ptr @expert_register_protocol(i32 noundef %2)
  tail call void @expert_register_field_array(ptr noundef %3, ptr noundef nonnull @proto_register_ipdc.ei, i32 noundef 1)
  %4 = load i32, ptr @proto_ipdc, align 4
  %5 = tail call ptr @prefs_register_protocol(i32 noundef %4, ptr noundef null)
  tail call void @prefs_register_bool_preference(ptr noundef %5, ptr noundef nonnull @.str.39, ptr noundef nonnull @.str.40, ptr noundef nonnull @.str.41, ptr noundef nonnull @ipdc_desegment)
  %6 = load i32, ptr @proto_ipdc, align 4
  %7 = tail call ptr @register_dissector(ptr noundef nonnull @.str.38, ptr noundef nonnull @dissect_ipdc_tcp, i32 noundef %6)
  store ptr %7, ptr @ipdc_tcp_handle, align 8
  ret void
}